target datalayout = "e-m:e-p270:32:32-p271:32:32-p272:64:64-i64:64-i128:128-f80:128-n8:16:32:64-S128"
target triple = "x86_64-pc-linux-gnu"

%"class.open3d::core::Device" = type { i32, i32 }

; Function Attrs: mustprogress nounwind ssp uwtable
define noundef zeroext i1 @_ZNK6open3d4core6DeviceeqERKS1_(ptr noundef nonnull align 4 dereferenceable(8) %0, ptr noundef nonnull align 4 dereferenceable(8) %1) #6 align 2 {
  %3 = alloca ptr, align 8
  %4 = alloca ptr, align 8
  store ptr %0, ptr %3, align 8, !tbaa !4
  store ptr %1, ptr %4, align 8, !tbaa !4
  %5 = load ptr, ptr %3, align 8
  %6 = getelementptr inbounds nuw %"class.open3d::core::Device", ptr %5, i32 0, i32 0
  %7 = load i32, ptr %6, align 4, !tbaa !13
  %8 = load ptr, ptr %4, align 8, !tbaa !4
  %9 = getelementptr inbounds nuw %"class.open3d::core::Device", ptr %8, i32 0, i32 0
  %10 = load i32, ptr %9, align 4, !tbaa !13
  %11 = icmp eq i32 %7, %10
  br i1 %11, label %12, label %19

12:                                               ; preds = %2
  %13 = getelementptr inbounds nuw %"class.open3d::core::Device", ptr %5, i32 0, i32 1
  %14 = load i32, ptr %13, align 4, !tbaa !15
  %15 = load ptr, ptr %4, align 8, !tbaa !4
  %16 = getelementptr inbounds nuw %"class.open3d::core::Device", ptr %15, i32 0, i32 1
  %17 = load i32, ptr %16, align 4, !tbaa !15
  %18 = icmp eq i32 %14, %17
  br label %19

19:                                               ; preds = %12, %2
  %20 = phi i1 [ false, %2 ], [ %18, %12 ]
  ret i1 %20
}

; Function Attrs: mustprogress nounwind ssp uwtable
define noundef zeroext i1 @_ZNK6open3d4core6DeviceneERKS1_(ptr noundef nonnull align 4 dereferenceable(8) %0, ptr noundef nonnull align 4 dereferenceable(8) %1) #6 align 2 {
  %3 = alloca ptr, align 8
  %4 = alloca ptr, align 8
  store ptr %0, ptr %3, align 8, !tbaa !4
  store ptr %1, ptr %4, align 8, !tbaa !4
  %5 = load ptr, ptr %3, align 8
  %6 = load ptr, ptr %4, align 8, !tbaa !4
  %7 = call noundef zeroext i1 @_ZNK6open3d4core6DeviceeqERKS1_(ptr noundef nonnull align 4 dereferenceable(8) %5, ptr noundef nonnull align 4 dereferenceable(8) %6)
  %8 = xor i1 %7, true
  ret i1 %8
}