; Function Attrs: mustprogress nofree norecurse nosync nounwind ssp willreturn memory(argmem: read) uwtable
define noundef zeroext i1 @_ZNK6open3d4core6DeviceneERKS1_(ptr noundef nonnull readonly align 4 captures(none) dereferenceable(8) %0, ptr noundef nonnull readonly align 4 captures(none) dereferenceable(8) %1) local_unnamed_addr #24 align 2 {
  %3 = load i32, ptr %0, align 4, !tbaa !4
  %4 = load i32, ptr %1, align 4, !tbaa !4
  %5 = icmp ne i32 %3, %4
  %6 = getelementptr inbounds nuw i8, ptr %0, i64 4
  %7 = load i32, ptr %6, align 4
  %8 = getelementptr inbounds nuw i8, ptr %1, i64 4
  %9 = load i32, ptr %8, align 4
  %10 = icmp ne i32 %7, %9
  %.not3 = select i1 %5, i1 true, i1 %10
  ret i1 %.not3
}